target datalayout = "e-m:e-p270:32:32-p271:32:32-p272:64:64-i64:64-i128:128-f80:128-n8:16:32:64-S128"
target triple = "x86_64-pc-linux-gnu"

%struct.ForEachState = type { ptr, i32 }
%struct.List = type { i32, i32, i32, ptr, [0 x %union.ListCell] }
%union.ListCell = type { ptr }
%struct.Node = type { i32 }
%struct.Var = type { %struct.Expr, i32, i16, i32, i32, i32, ptr, i32, i32, i32, i16, i32 }
%struct.Expr = type { i32 }
%struct.TargetEntry = type { %struct.Expr, ptr, i16, ptr, i32, i32, i16, i8 }

@.str.1 = private unnamed_addr constant [17 x i8] c"rewriteHandler.c\00", align 1
@.str.35 = private unnamed_addr constant [49 x i8] c"attribute number %d not found in view targetlist\00", align 1
@__func__.adjust_view_column_set = private unnamed_addr constant [23 x i8] c"adjust_view_column_set\00", align 1

; Function Attrs: nounwind uwtable
define internal ptr @adjust_view_column_set(ptr noundef %0, ptr noundef %1) #0 {
  %3 = alloca ptr, align 8
  %4 = alloca ptr, align 8
  %5 = alloca ptr, align 8
  %6 = alloca i32, align 4
  %7 = alloca i16, align 2
  %8 = alloca ptr, align 8
  %9 = alloca %struct.ForEachState, align 8
  %10 = alloca i32, align 4
  %11 = alloca ptr, align 8
  %12 = alloca ptr, align 8
  %13 = alloca ptr, align 8
  %14 = alloca ptr, align 8
  store ptr %0, ptr %3, align 8
  store ptr %1, ptr %4, align 8
  call void @llvm.lifetime.start.p0(i64 8, ptr %5) #9
  store ptr null, ptr %5, align 8
  call void @llvm.lifetime.start.p0(i64 4, ptr %6) #9
  store i32 -1, ptr %6, align 4
  br label %15

15:                                               ; preds = %128, %2
  %16 = load ptr, ptr %3, align 8
  %17 = load i32, ptr %6, align 4
  %18 = call i32 @bms_next_member(ptr noundef %16, i32 noundef %17)
  store i32 %18, ptr %6, align 4
  %19 = icmp sge i32 %18, 0
  br i1 %19, label %20, label %129

20:                                               ; preds = %15
  call void @llvm.lifetime.start.p0(i64 2, ptr %7) #9
  %21 = load i32, ptr %6, align 4
  %22 = add i32 %21, -7
  %23 = trunc i32 %22 to i16
  store i16 %23, ptr %7, align 2
  %24 = load i16, ptr %7, align 2
  %25 = sext i16 %24 to i32
  %26 = icmp eq i32 %25, 0
  br i1 %26, label %27, label %85

27:                                               ; preds = %20
  call void @llvm.lifetime.start.p0(i64 8, ptr %8) #9
  call void @llvm.lifetime.start.p0(i64 16, ptr %9) #9
  %28 = getelementptr inbounds nuw %struct.ForEachState, ptr %9, i32 0, i32 0
  %29 = load ptr, ptr %4, align 8
  store ptr %29, ptr %28, align 8
  %30 = getelementptr inbounds nuw %struct.ForEachState, ptr %9, i32 0, i32 1
  store i32 0, ptr %30, align 8
  %31 = getelementptr i8, ptr %9, i64 12
  call void @llvm.memset.p0.i64(ptr align 4 %31, i8 0, i64 4, i1 false)
  br label %32

32:                                               ; preds = %80, %27
  %33 = getelementptr inbounds nuw %struct.ForEachState, ptr %9, i32 0, i32 0
  %34 = load ptr, ptr %33, align 8
  %35 = icmp ne ptr %34, null
  br i1 %35, label %36, label %53

36:                                               ; preds = %32
  %37 = getelementptr inbounds nuw %struct.ForEachState, ptr %9, i32 0, i32 1
  %38 = load i32, ptr %37, align 8
  %39 = getelementptr inbounds nuw %struct.ForEachState, ptr %9, i32 0, i32 0
  %40 = load ptr, ptr %39, align 8
  %41 = getelementptr inbounds nuw %struct.List, ptr %40, i32 0, i32 1
  %42 = load i32, ptr %41, align 4
  %43 = icmp slt i32 %38, %42
  br i1 %43, label %44, label %53

44:                                               ; preds = %36
  %45 = getelementptr inbounds nuw %struct.ForEachState, ptr %9, i32 0, i32 0
  %46 = load ptr, ptr %45, align 8
  %47 = getelementptr inbounds nuw %struct.List, ptr %46, i32 0, i32 3
  %48 = load ptr, ptr %47, align 8
  %49 = getelementptr inbounds nuw %struct.ForEachState, ptr %9, i32 0, i32 1
  %50 = load i32, ptr %49, align 8
  %51 = sext i32 %50 to i64
  %52 = getelementptr inbounds %union.ListCell, ptr %48, i64 %51
  store ptr %52, ptr %8, align 8
  br label %54

53:                                               ; preds = %36, %32
  store ptr null, ptr %8, align 8
  br label %54

54:                                               ; preds = %53, %44
  %55 = phi i32 [ 1, %44 ], [ 0, %53 ]
  %56 = icmp ne i32 %55, 0
  br i1 %56, label %58, label %57

57:                                               ; preds = %54
  store i32 4, ptr %10, align 4
  call void @llvm.lifetime.end.p0(i64 16, ptr %9) #9
  br label %84

58:                                               ; preds = %54
  call void @llvm.lifetime.start.p0(i64 8, ptr %11) #9
  %59 = load ptr, ptr %8, align 8
  %60 = load ptr, ptr %59, align 8
  store ptr %60, ptr %11, align 8
  call void @llvm.lifetime.start.p0(i64 8, ptr %12) #9
  %61 = load ptr, ptr %11, align 8
  %62 = getelementptr inbounds nuw %struct.TargetEntry, ptr %61, i32 0, i32 7
  %63 = load i8, ptr %62, align 2, !range !4, !noundef !5
  %64 = trunc i8 %63 to i1
  br i1 %64, label %65, label %66

65:                                               ; preds = %58
  store i32 6, ptr %10, align 4
  br label %77

66:                                               ; preds = %58
  %67 = load ptr, ptr %11, align 8
  %68 = getelementptr inbounds nuw %struct.TargetEntry, ptr %67, i32 0, i32 1
  %69 = load ptr, ptr %68, align 8
  store ptr %69, ptr %12, align 8
  %70 = load ptr, ptr %5, align 8
  %71 = load ptr, ptr %12, align 8
  %72 = getelementptr inbounds nuw %struct.Var, ptr %71, i32 0, i32 2
  %73 = load i16, ptr %72, align 8
  %74 = sext i16 %73 to i32
  %75 = sub i32 %74, -7
  %76 = call ptr @bms_add_member(ptr noundef %70, i32 noundef %75)
  store ptr %76, ptr %5, align 8
  store i32 0, ptr %10, align 4
  br label %77

77:                                               ; preds = %66, %65
  call void @llvm.lifetime.end.p0(i64 8, ptr %12) #9
  call void @llvm.lifetime.end.p0(i64 8, ptr %11) #9
  %78 = load i32, ptr %10, align 4
  switch i32 %78, label %131 [
    i32 0, label %79
    i32 6, label %80
  ]

79:                                               ; preds = %77
  br label %80

80:                                               ; preds = %79, %77
  %81 = getelementptr inbounds nuw %struct.ForEachState, ptr %9, i32 0, i32 1
  %82 = load i32, ptr %81, align 8
  %83 = add i32 %82, 1
  store i32 %83, ptr %81, align 8
  br label %32, !llvm.loop !16

84:                                               ; preds = %57
  call void @llvm.lifetime.end.p0(i64 8, ptr %8) #9
  br label %128

85:                                               ; preds = %20
  call void @llvm.lifetime.start.p0(i64 8, ptr %13) #9
  %86 = load ptr, ptr %4, align 8
  %87 = load i16, ptr %7, align 2
  %88 = call ptr @get_tle_by_resno(ptr noundef %86, i16 noundef signext %87)
  store ptr %88, ptr %13, align 8
  %89 = load ptr, ptr %13, align 8
  %90 = icmp ne ptr %89, null
  br i1 %90, label %91, label %114

91:                                               ; preds = %85
  %92 = load ptr, ptr %13, align 8
  %93 = getelementptr inbounds nuw %struct.TargetEntry, ptr %92, i32 0, i32 7
  %94 = load i8, ptr %93, align 2, !range !4, !noundef !5
  %95 = trunc i8 %94 to i1
  br i1 %95, label %114, label %96

96:                                               ; preds = %91
  %97 = load ptr, ptr %13, align 8
  %98 = getelementptr inbounds nuw %struct.TargetEntry, ptr %97, i32 0, i32 1
  %99 = load ptr, ptr %98, align 8
  %100 = getelementptr inbounds nuw %struct.Node, ptr %99, i32 0, i32 0
  %101 = load i32, ptr %100, align 4
  %102 = icmp eq i32 %101, 6
  br i1 %102, label %103, label %114

103:                                              ; preds = %96
  call void @llvm.lifetime.start.p0(i64 8, ptr %14) #9
  %104 = load ptr, ptr %13, align 8
  %105 = getelementptr inbounds nuw %struct.TargetEntry, ptr %104, i32 0, i32 1
  %106 = load ptr, ptr %105, align 8
  store ptr %106, ptr %14, align 8
  %107 = load ptr, ptr %5, align 8
  %108 = load ptr, ptr %14, align 8
  %109 = getelementptr inbounds nuw %struct.Var, ptr %108, i32 0, i32 2
  %110 = load i16, ptr %109, align 8
  %111 = sext i16 %110 to i32
  %112 = sub i32 %111, -7
  %113 = call ptr @bms_add_member(ptr noundef %107, i32 noundef %112)
  store ptr %113, ptr %5, align 8
  call void @llvm.lifetime.end.p0(i64 8, ptr %14) #9
  br label %127

114:                                              ; preds = %96, %91, %85
  br label %115

115:                                              ; preds = %114
  br i1 true, label %116, label %118

116:                                              ; preds = %115
  %117 = call zeroext i1 @errstart_cold(i32 noundef 21, ptr noundef null) #10
  br i1 %117, label %120, label %124

118:                                              ; preds = %115
  %119 = call zeroext i1 @errstart(i32 noundef 21, ptr noundef null)
  br i1 %119, label %120, label %124

120:                                              ; preds = %118, %116
  %121 = load i16, ptr %7, align 2
  %122 = sext i16 %121 to i32
  %123 = call i32 (ptr, ...) @errmsg_internal(ptr noundef @.str.35, i32 noundef %122)
  call void @errfinish(ptr noundef @.str.1, i32 noundef 3111, ptr noundef @__func__.adjust_view_column_set)
  br label %124

124:                                              ; preds = %120, %118, %116
  unreachable

125:                                              ; No predecessors!
  br label %126

126:                                              ; preds = %125
  br label %127

127:                                              ; preds = %126, %103
  call void @llvm.lifetime.end.p0(i64 8, ptr %13) #9
  br label %128

128:                                              ; preds = %127, %84
  call void @llvm.lifetime.end.p0(i64 2, ptr %7) #9
  br label %15, !llvm.loop !17

129:                                              ; preds = %15
  %130 = load ptr, ptr %5, align 8
  store i32 1, ptr %10, align 4
  call void @llvm.lifetime.end.p0(i64 4, ptr %6) #9
  call void @llvm.lifetime.end.p0(i64 8, ptr %5) #9
  ret ptr %130

131:                                              ; preds = %77
  unreachable
}