; Function Attrs: nounwind uwtable
define internal fastcc ptr @adjust_view_column_set(ptr noundef %0, ptr noundef %1) unnamed_addr #0 {
  %3 = tail call i32 @bms_next_member(ptr noundef %0, i32 noundef -1) #10
  %4 = icmp sgt i32 %3, -1
  br i1 %4, label %.lr.ph44, label %._crit_edge

.lr.ph44:                                         ; preds = %2
  %5 = getelementptr inbounds nuw i8, ptr %1, i64 4
  %.not29 = icmp eq ptr %1, null
  %6 = getelementptr inbounds nuw i8, ptr %1, i64 16
  br i1 %.not29, label %.lr.ph44.split.us, label %.lr.ph44.split

.lr.ph44.split.us:                                ; preds = %.lr.ph44, %.thread.us
  %7 = phi i32 [ %28, %.thread.us ], [ %3, %.lr.ph44 ]
  %.043.us = phi ptr [ %.3.us, %.thread.us ], [ null, %.lr.ph44 ]
  %8 = trunc i32 %7 to i16
  %9 = add i16 %8, -7
  %10 = icmp eq i16 %9, 0
  br i1 %10, label %.thread.us, label %11

11:                                               ; preds = %.lr.ph44.split.us
  %12 = tail call ptr @get_tle_by_resno(ptr noundef null, i16 noundef signext %9) #10
  %.not.us = icmp eq ptr %12, null
  br i1 %.not.us, label %.split.us, label %13

13:                                               ; preds = %11
  %14 = getelementptr inbounds nuw i8, ptr %12, i64 42
  %15 = load i8, ptr %14, align 2, !range !4, !noundef !5
  %16 = trunc nuw i8 %15 to i1
  br i1 %16, label %.split.us, label %17

17:                                               ; preds = %13
  %18 = getelementptr inbounds nuw i8, ptr %12, i64 8
  %19 = load ptr, ptr %18, align 8
  %20 = load i32, ptr %19, align 4
  %21 = icmp eq i32 %20, 6
  br i1 %21, label %22, label %.split.us

22:                                               ; preds = %17
  %23 = getelementptr inbounds nuw i8, ptr %19, i64 8
  %24 = load i16, ptr %23, align 8
  %25 = sext i16 %24 to i32
  %26 = add nsw i32 %25, 7
  %27 = tail call ptr @bms_add_member(ptr noundef %.043.us, i32 noundef %26) #10
  br label %.thread.us

.thread.us:                                       ; preds = %.lr.ph44.split.us, %22
  %.3.us = phi ptr [ %27, %22 ], [ %.043.us, %.lr.ph44.split.us ]
  %28 = tail call i32 @bms_next_member(ptr noundef %0, i32 noundef %7) #10
  %29 = icmp sgt i32 %28, -1
  br i1 %29, label %.lr.ph44.split.us, label %._crit_edge, !llvm.loop !9

.lr.ph44.split:                                   ; preds = %.lr.ph44, %.thread
  %30 = phi i32 [ %75, %.thread ], [ %3, %.lr.ph44 ]
  %.043 = phi ptr [ %.3, %.thread ], [ null, %.lr.ph44 ]
  %31 = trunc i32 %30 to i16
  %32 = add i16 %31, -7
  %33 = icmp eq i16 %32, 0
  br i1 %33, label %.preheader, label %55

.preheader:                                       ; preds = %.lr.ph44.split
  %34 = load i32, ptr %5, align 4
  %35 = icmp sgt i32 %34, 0
  br i1 %35, label %.lr.ph41, label %.thread

.lr.ph41:                                         ; preds = %.preheader, %51
  %36 = phi i32 [ %52, %51 ], [ %34, %.preheader ]
  %indvars.iv = phi i64 [ %indvars.iv.next, %51 ], [ 0, %.preheader ]
  %.13539 = phi ptr [ %.2, %51 ], [ %.043, %.preheader ]
  %37 = load ptr, ptr %6, align 8
  %38 = getelementptr inbounds nuw %union.ListCell, ptr %37, i64 %indvars.iv
  %39 = load ptr, ptr %38, align 8
  %40 = getelementptr inbounds nuw i8, ptr %39, i64 42
  %41 = load i8, ptr %40, align 2, !range !4, !noundef !5
  %42 = trunc nuw i8 %41 to i1
  br i1 %42, label %51, label %43

43:                                               ; preds = %.lr.ph41
  %44 = getelementptr inbounds nuw i8, ptr %39, i64 8
  %45 = load ptr, ptr %44, align 8
  %46 = getelementptr inbounds nuw i8, ptr %45, i64 8
  %47 = load i16, ptr %46, align 8
  %48 = sext i16 %47 to i32
  %49 = add nsw i32 %48, 7
  %50 = tail call ptr @bms_add_member(ptr noundef %.13539, i32 noundef %49) #10
  %.pre = load i32, ptr %5, align 4
  br label %51

51:                                               ; preds = %.lr.ph41, %43
  %52 = phi i32 [ %.pre, %43 ], [ %36, %.lr.ph41 ]
  %.2 = phi ptr [ %50, %43 ], [ %.13539, %.lr.ph41 ]
  %indvars.iv.next = add nuw nsw i64 %indvars.iv, 1
  %53 = sext i32 %52 to i64
  %54 = icmp slt i64 %indvars.iv.next, %53
  br i1 %54, label %.lr.ph41, label %.thread

55:                                               ; preds = %.lr.ph44.split
  %56 = tail call ptr @get_tle_by_resno(ptr noundef nonnull %1, i16 noundef signext %32) #10
  %.not = icmp eq ptr %56, null
  br i1 %.not, label %.split.us, label %57

57:                                               ; preds = %55
  %58 = getelementptr inbounds nuw i8, ptr %56, i64 42
  %59 = load i8, ptr %58, align 2, !range !4, !noundef !5
  %60 = trunc nuw i8 %59 to i1
  br i1 %60, label %.split.us, label %61

61:                                               ; preds = %57
  %62 = getelementptr inbounds nuw i8, ptr %56, i64 8
  %63 = load ptr, ptr %62, align 8
  %64 = load i32, ptr %63, align 4
  %65 = icmp eq i32 %64, 6
  br i1 %65, label %66, label %.split.us

66:                                               ; preds = %61
  %67 = getelementptr inbounds nuw i8, ptr %63, i64 8
  %68 = load i16, ptr %67, align 8
  %69 = sext i16 %68 to i32
  %70 = add nsw i32 %69, 7
  %71 = tail call ptr @bms_add_member(ptr noundef %.043, i32 noundef %70) #10
  br label %.thread

.split.us:                                        ; preds = %55, %57, %61, %11, %13, %17
  %.us-phi46 = phi i16 [ %9, %17 ], [ %9, %13 ], [ %9, %11 ], [ %32, %61 ], [ %32, %57 ], [ %32, %55 ]
  %72 = sext i16 %.us-phi46 to i32
  %73 = tail call zeroext i1 @errstart_cold(i32 noundef 21, ptr noundef null) #11
  tail call void @llvm.assume(i1 %73)
  %74 = tail call i32 (ptr, ...) @errmsg_internal(ptr noundef nonnull @.str.35, i32 noundef %72) #10
  tail call void @errfinish(ptr noundef nonnull @.str.1, i32 noundef 3111, ptr noundef nonnull @__func__.adjust_view_column_set) #10
  unreachable

.thread:                                          ; preds = %51, %.preheader, %66
  %.3 = phi ptr [ %71, %66 ], [ %.043, %.preheader ], [ %.2, %51 ]
  %75 = tail call i32 @bms_next_member(ptr noundef %0, i32 noundef %30) #10
  %76 = icmp sgt i32 %75, -1
  br i1 %76, label %.lr.ph44.split, label %._crit_edge, !llvm.loop !9

._crit_edge:                                      ; preds = %.thread, %.thread.us, %2
  %.0.lcssa = phi ptr [ null, %2 ], [ %.3.us, %.thread.us ], [ %.3, %.thread ]
  ret ptr %.0.lcssa
}